target datalayout = "e-m:e-p270:32:32-p271:32:32-p272:64:64-i64:64-i128:128-f80:128-n8:16:32:64-S128"
target triple = "x86_64-pc-linux-gnu"

%struct.RBTree = type { ptr, i64, ptr, ptr, ptr, ptr, ptr }
%struct.RBTNode = type { i8, ptr, ptr, ptr }
%struct.RBTreeIterator = type { ptr, ptr, ptr, i8 }

@sentinel = internal global { i8, [7 x i8], ptr, ptr, ptr } { i8 0, [7 x i8] zeroinitializer, ptr @sentinel, ptr @sentinel, ptr null }, align 8

; Function Attrs: nounwind uwtable
define internal ptr @rbt_right_left_iterator(ptr noundef %0) #0 {
  %2 = alloca ptr, align 8
  %3 = alloca ptr, align 8
  %4 = alloca ptr, align 8
  %5 = alloca i32, align 4
  store ptr %0, ptr %3, align 8
  %6 = load ptr, ptr %3, align 8
  %7 = getelementptr inbounds nuw %struct.RBTreeIterator, ptr %6, i32 0, i32 2
  %8 = load ptr, ptr %7, align 8
  %9 = icmp eq ptr %8, null
  br i1 %9, label %10, label %37

10:                                               ; preds = %1
  %11 = load ptr, ptr %3, align 8
  %12 = getelementptr inbounds nuw %struct.RBTreeIterator, ptr %11, i32 0, i32 0
  %13 = load ptr, ptr %12, align 8
  %14 = getelementptr inbounds nuw %struct.RBTree, ptr %13, i32 0, i32 0
  %15 = load ptr, ptr %14, align 8
  %16 = load ptr, ptr %3, align 8
  %17 = getelementptr inbounds nuw %struct.RBTreeIterator, ptr %16, i32 0, i32 2
  store ptr %15, ptr %17, align 8
  br label %18

18:                                               ; preds = %25, %10
  %19 = load ptr, ptr %3, align 8
  %20 = getelementptr inbounds nuw %struct.RBTreeIterator, ptr %19, i32 0, i32 2
  %21 = load ptr, ptr %20, align 8
  %22 = getelementptr inbounds nuw %struct.RBTNode, ptr %21, i32 0, i32 2
  %23 = load ptr, ptr %22, align 8
  %24 = icmp ne ptr %23, @sentinel
  br i1 %24, label %25, label %33

25:                                               ; preds = %18
  %26 = load ptr, ptr %3, align 8
  %27 = getelementptr inbounds nuw %struct.RBTreeIterator, ptr %26, i32 0, i32 2
  %28 = load ptr, ptr %27, align 8
  %29 = getelementptr inbounds nuw %struct.RBTNode, ptr %28, i32 0, i32 2
  %30 = load ptr, ptr %29, align 8
  %31 = load ptr, ptr %3, align 8
  %32 = getelementptr inbounds nuw %struct.RBTreeIterator, ptr %31, i32 0, i32 2
  store ptr %30, ptr %32, align 8
  br label %18, !llvm.loop !16

33:                                               ; preds = %18
  %34 = load ptr, ptr %3, align 8
  %35 = getelementptr inbounds nuw %struct.RBTreeIterator, ptr %34, i32 0, i32 2
  %36 = load ptr, ptr %35, align 8
  store ptr %36, ptr %2, align 8
  br label %107

37:                                               ; preds = %1
  %38 = load ptr, ptr %3, align 8
  %39 = getelementptr inbounds nuw %struct.RBTreeIterator, ptr %38, i32 0, i32 2
  %40 = load ptr, ptr %39, align 8
  %41 = getelementptr inbounds nuw %struct.RBTNode, ptr %40, i32 0, i32 1
  %42 = load ptr, ptr %41, align 8
  %43 = icmp ne ptr %42, @sentinel
  br i1 %43, label %44, label %71

44:                                               ; preds = %37
  %45 = load ptr, ptr %3, align 8
  %46 = getelementptr inbounds nuw %struct.RBTreeIterator, ptr %45, i32 0, i32 2
  %47 = load ptr, ptr %46, align 8
  %48 = getelementptr inbounds nuw %struct.RBTNode, ptr %47, i32 0, i32 1
  %49 = load ptr, ptr %48, align 8
  %50 = load ptr, ptr %3, align 8
  %51 = getelementptr inbounds nuw %struct.RBTreeIterator, ptr %50, i32 0, i32 2
  store ptr %49, ptr %51, align 8
  br label %52

52:                                               ; preds = %59, %44
  %53 = load ptr, ptr %3, align 8
  %54 = getelementptr inbounds nuw %struct.RBTreeIterator, ptr %53, i32 0, i32 2
  %55 = load ptr, ptr %54, align 8
  %56 = getelementptr inbounds nuw %struct.RBTNode, ptr %55, i32 0, i32 2
  %57 = load ptr, ptr %56, align 8
  %58 = icmp ne ptr %57, @sentinel
  br i1 %58, label %59, label %67

59:                                               ; preds = %52
  %60 = load ptr, ptr %3, align 8
  %61 = getelementptr inbounds nuw %struct.RBTreeIterator, ptr %60, i32 0, i32 2
  %62 = load ptr, ptr %61, align 8
  %63 = getelementptr inbounds nuw %struct.RBTNode, ptr %62, i32 0, i32 2
  %64 = load ptr, ptr %63, align 8
  %65 = load ptr, ptr %3, align 8
  %66 = getelementptr inbounds nuw %struct.RBTreeIterator, ptr %65, i32 0, i32 2
  store ptr %64, ptr %66, align 8
  br label %52, !llvm.loop !17

67:                                               ; preds = %52
  %68 = load ptr, ptr %3, align 8
  %69 = getelementptr inbounds nuw %struct.RBTreeIterator, ptr %68, i32 0, i32 2
  %70 = load ptr, ptr %69, align 8
  store ptr %70, ptr %2, align 8
  br label %107

71:                                               ; preds = %37
  br label %72

72:                                               ; preds = %102, %71
  call void @llvm.lifetime.start.p0(i64 8, ptr %4) #6
  %73 = load ptr, ptr %3, align 8
  %74 = getelementptr inbounds nuw %struct.RBTreeIterator, ptr %73, i32 0, i32 2
  %75 = load ptr, ptr %74, align 8
  store ptr %75, ptr %4, align 8
  %76 = load ptr, ptr %3, align 8
  %77 = getelementptr inbounds nuw %struct.RBTreeIterator, ptr %76, i32 0, i32 2
  %78 = load ptr, ptr %77, align 8
  %79 = getelementptr inbounds nuw %struct.RBTNode, ptr %78, i32 0, i32 3
  %80 = load ptr, ptr %79, align 8
  %81 = load ptr, ptr %3, align 8
  %82 = getelementptr inbounds nuw %struct.RBTreeIterator, ptr %81, i32 0, i32 2
  store ptr %80, ptr %82, align 8
  %83 = load ptr, ptr %3, align 8
  %84 = getelementptr inbounds nuw %struct.RBTreeIterator, ptr %83, i32 0, i32 2
  %85 = load ptr, ptr %84, align 8
  %86 = icmp eq ptr %85, null
  br i1 %86, label %87, label %90

87:                                               ; preds = %72
  %88 = load ptr, ptr %3, align 8
  %89 = getelementptr inbounds nuw %struct.RBTreeIterator, ptr %88, i32 0, i32 3
  store i8 1, ptr %89, align 8
  store i32 6, ptr %5, align 4
  br label %100

90:                                               ; preds = %72
  %91 = load ptr, ptr %3, align 8
  %92 = getelementptr inbounds nuw %struct.RBTreeIterator, ptr %91, i32 0, i32 2
  %93 = load ptr, ptr %92, align 8
  %94 = getelementptr inbounds nuw %struct.RBTNode, ptr %93, i32 0, i32 2
  %95 = load ptr, ptr %94, align 8
  %96 = load ptr, ptr %4, align 8
  %97 = icmp eq ptr %95, %96
  br i1 %97, label %98, label %99

98:                                               ; preds = %90
  store i32 6, ptr %5, align 4
  br label %100

99:                                               ; preds = %90
  store i32 0, ptr %5, align 4
  br label %100

100:                                              ; preds = %99, %98, %87
  call void @llvm.lifetime.end.p0(i64 8, ptr %4) #6
  %101 = load i32, ptr %5, align 4
  switch i32 %101, label %109 [
    i32 0, label %102
    i32 6, label %103
  ]

102:                                              ; preds = %100
  br label %72

103:                                              ; preds = %100
  %104 = load ptr, ptr %3, align 8
  %105 = getelementptr inbounds nuw %struct.RBTreeIterator, ptr %104, i32 0, i32 2
  %106 = load ptr, ptr %105, align 8
  store ptr %106, ptr %2, align 8
  br label %107

107:                                              ; preds = %103, %67, %33
  %108 = load ptr, ptr %2, align 8
  ret ptr %108

109:                                              ; preds = %100
  unreachable
}