; Function Attrs: nofree norecurse nosync nounwind memory(read, argmem: readwrite, inaccessiblemem: none) uwtable
define internal ptr @rbt_right_left_iterator(ptr noundef captures(none) %0) #3 {
  %2 = getelementptr inbounds nuw i8, ptr %0, i64 16
  %3 = load ptr, ptr %2, align 8
  %4 = icmp eq ptr %3, null
  br i1 %4, label %5, label %11

5:                                                ; preds = %1
  %6 = load ptr, ptr %0, align 8
  %7 = load ptr, ptr %6, align 8
  br label %8

8:                                                ; preds = %8, %5
  %storemerge30 = phi ptr [ %7, %5 ], [ %10, %8 ]
  store ptr %storemerge30, ptr %2, align 8
  %9 = getelementptr inbounds nuw i8, ptr %storemerge30, i64 16
  %10 = load ptr, ptr %9, align 8
  %.not31 = icmp eq ptr %10, @sentinel
  br i1 %.not31, label %select.unfold, label %8, !llvm.loop !13

11:                                               ; preds = %1
  %12 = getelementptr inbounds nuw i8, ptr %3, i64 8
  %13 = load ptr, ptr %12, align 8
  %.not = icmp eq ptr %13, @sentinel
  br i1 %.not, label %.preheader, label %.preheader35

.preheader35:                                     ; preds = %11, %.preheader35
  %storemerge = phi ptr [ %15, %.preheader35 ], [ %13, %11 ]
  store ptr %storemerge, ptr %2, align 8
  %14 = getelementptr inbounds nuw i8, ptr %storemerge, i64 16
  %15 = load ptr, ptr %14, align 8
  %.not29 = icmp eq ptr %15, @sentinel
  br i1 %.not29, label %select.unfold, label %.preheader35, !llvm.loop !14

.preheader:                                       ; preds = %11, %22
  %16 = phi ptr [ %18, %22 ], [ %3, %11 ]
  %17 = getelementptr inbounds nuw i8, ptr %16, i64 24
  %18 = load ptr, ptr %17, align 8
  store ptr %18, ptr %2, align 8
  %19 = icmp eq ptr %18, null
  br i1 %19, label %20, label %22

20:                                               ; preds = %.preheader
  %21 = getelementptr inbounds nuw i8, ptr %0, i64 24
  store i8 1, ptr %21, align 8
  br label %select.unfold

22:                                               ; preds = %.preheader
  %23 = getelementptr inbounds nuw i8, ptr %18, i64 16
  %24 = load ptr, ptr %23, align 8
  %25 = icmp eq ptr %24, %16
  br i1 %25, label %select.unfold, label %.preheader

select.unfold:                                    ; preds = %.preheader35, %22, %8, %20
  %.023 = phi ptr [ null, %20 ], [ %storemerge30, %8 ], [ %18, %22 ], [ %storemerge, %.preheader35 ]
  ret ptr %.023
}